target datalayout = "e-m:e-p270:32:32-p271:32:32-p272:64:64-i64:64-i128:128-f80:128-n8:16:32:64-S128"
target triple = "x86_64-pc-linux-gnu"

@obmc_mask_1 = internal constant [1 x i8] c"@", align 1
@obmc_mask_2 = internal constant [2 x i8] c"-@", align 2
@obmc_mask_4 = internal constant [4 x i8] c"'2;@", align 4
@obmc_mask_8 = internal constant [8 x i8] c"$*059=@@", align 1
@obmc_mask_16 = internal constant [16 x i8] c"\22%(+.1468:<=@@@@", align 16
@obmc_mask_32 = internal constant [32 x i8] c"!#$&()+,-/02345789:;<<=>@@@@@@@@", align 16
@obmc_mask_64 = internal constant [64 x i8] c"!\22##$%&'(()*+,,,-.//0123334456788899::;<<<<<=>>>>>????@@@@@@@@@@", align 16

; Function Attrs: nounwind uwtable
define hidden ptr @av1_get_obmc_mask(i32 noundef %0) #0 {
  %2 = alloca ptr, align 8
  %3 = alloca i32, align 4
  store i32 %0, ptr %3, align 4
  %4 = load i32, ptr %3, align 4
  switch i32 %4, label %12 [
    i32 1, label %5
    i32 2, label %6
    i32 4, label %7
    i32 8, label %8
    i32 16, label %9
    i32 32, label %10
    i32 64, label %11
  ]

5:                                                ; preds = %1
  store ptr @obmc_mask_1, ptr %2, align 8
  br label %13

6:                                                ; preds = %1
  store ptr @obmc_mask_2, ptr %2, align 8
  br label %13

7:                                                ; preds = %1
  store ptr @obmc_mask_4, ptr %2, align 8
  br label %13

8:                                                ; preds = %1
  store ptr @obmc_mask_8, ptr %2, align 8
  br label %13

9:                                                ; preds = %1
  store ptr @obmc_mask_16, ptr %2, align 8
  br label %13

10:                                               ; preds = %1
  store ptr @obmc_mask_32, ptr %2, align 8
  br label %13

11:                                               ; preds = %1
  store ptr @obmc_mask_64, ptr %2, align 8
  br label %13

12:                                               ; preds = %1
  store ptr null, ptr %2, align 8
  br label %13

13:                                               ; preds = %12, %11, %10, %9, %8, %7, %6, %5
  %14 = load ptr, ptr %2, align 8
  ret ptr %14
}