; Function Attrs: mustprogress nofree norecurse nosync nounwind willreturn memory(none) uwtable
define hidden noundef ptr @av1_get_obmc_mask(i32 noundef %0) local_unnamed_addr #10 {
  switch i32 %0, label %8 [
    i32 1, label %9
    i32 2, label %2
    i32 4, label %3
    i32 8, label %4
    i32 16, label %5
    i32 32, label %6
    i32 64, label %7
  ]

2:                                                ; preds = %1
  br label %9

3:                                                ; preds = %1
  br label %9

4:                                                ; preds = %1
  br label %9

5:                                                ; preds = %1
  br label %9

6:                                                ; preds = %1
  br label %9

7:                                                ; preds = %1
  br label %9

8:                                                ; preds = %1
  br label %9

9:                                                ; preds = %1, %8, %7, %6, %5, %4, %3, %2
  %.0 = phi ptr [ null, %8 ], [ @obmc_mask_64, %7 ], [ @obmc_mask_32, %6 ], [ @obmc_mask_16, %5 ], [ @obmc_mask_8, %4 ], [ @obmc_mask_4, %3 ], [ @obmc_mask_2, %2 ], [ @obmc_mask_1, %1 ]
  ret ptr %.0
}